target datalayout = "e-m:e-p270:32:32-p271:32:32-p272:64:64-i64:64-i128:128-f80:128-n8:16:32:64-S128"
target triple = "x86_64-pc-linux-gnu"

@madvise_dont_need_zeros_is_faulty = internal global i32 -1, align 4

; Function Attrs: nounwind uwtable
define zeroext i1 @duckdb_je_pages_purge_forced(ptr noundef %0, i64 noundef %1) #0 {
  %3 = alloca ptr, align 8
  %4 = alloca i64, align 8
  store ptr %0, ptr %3, align 8, !tbaa !3
  store i64 %1, ptr %4, align 8, !tbaa !7
  br label %5

5:                                                ; preds = %2
  br label %6

6:                                                ; preds = %5
  br label %7

7:                                                ; preds = %6
  br label %8

8:                                                ; preds = %7
  %9 = load i32, ptr @madvise_dont_need_zeros_is_faulty, align 4, !tbaa !15
  %10 = icmp ne i32 %9, 0
  %11 = xor i1 %10, true
  %12 = xor i1 %11, true
  %13 = zext i1 %12 to i32
  %14 = sext i32 %13 to i64
  %15 = call i64 @llvm.expect.i64(i64 %14, i64 0)
  %16 = icmp ne i64 %15, 0
  br i1 %16, label %22, label %17

17:                                               ; preds = %8
  %18 = load ptr, ptr %3, align 8, !tbaa !3
  %19 = load i64, ptr %4, align 8, !tbaa !7
  %20 = call i32 @madvise(ptr noundef %18, i64 noundef %19, i32 noundef 4) #11
  %21 = icmp ne i32 %20, 0
  br label %22

22:                                               ; preds = %17, %8
  %23 = phi i1 [ true, %8 ], [ %21, %17 ]
  ret i1 %23
}